; Function Attrs: mustprogress nounwind uwtable
define internal fastcc void @_ZNSt16allocator_traitsISaIZN5cmake8WorkflowERKNSt7__cxx1112basic_stringIcSt11char_traitsIcESaIcEEENS0_19WorkflowListPresetsENS0_13WorkflowFreshEE14CalculatedStepEE7destroyISB_EEvRSC_PT_(ptr noundef %0) unnamed_addr #6 align 2 personality ptr @__gxx_personality_v0 {
  %2 = getelementptr inbounds i8, ptr %0, i64 72
  %3 = load ptr, ptr %2, align 8
  %.not.i.i.i.i = icmp eq ptr %3, null
  br i1 %.not.i.i.i.i, label %_ZNSt15__new_allocatorIZN5cmake8WorkflowERKNSt7__cxx1112basic_stringIcSt11char_traitsIcESaIcEEENS0_19WorkflowListPresetsENS0_13WorkflowFreshEE14CalculatedStepE7destroyISB_EEvPT_.exit, label %4

4:                                                ; preds = %1
  %5 = getelementptr inbounds i8, ptr %0, i64 56
  %6 = invoke noundef zeroext i1 %3(ptr noundef nonnull align 8 dereferenceable(16) %5, ptr noundef nonnull align 8 dereferenceable(16) %5, i32 noundef 3)
          to label %_ZNSt15__new_allocatorIZN5cmake8WorkflowERKNSt7__cxx1112basic_stringIcSt11char_traitsIcESaIcEEENS0_19WorkflowListPresetsENS0_13WorkflowFreshEE14CalculatedStepE7destroyISB_EEvPT_.exit unwind label %7

7:                                                ; preds = %4
  %8 = landingpad { ptr, i32 }
          catch ptr null
  %9 = extractvalue { ptr, i32 } %8, 0
  tail call void @__clang_call_terminate(ptr %9) #33
  unreachable

_ZNSt15__new_allocatorIZN5cmake8WorkflowERKNSt7__cxx1112basic_stringIcSt11char_traitsIcESaIcEEENS0_19WorkflowListPresetsENS0_13WorkflowFreshEE14CalculatedStepE7destroyISB_EEvPT_.exit: ; preds = %1, %4
  %10 = getelementptr inbounds i8, ptr %0, i64 24
  tail call void @_ZNSt7__cxx1112basic_stringIcSt11char_traitsIcESaIcEED1Ev(ptr noundef nonnull align 8 dereferenceable(32) %10) #30
  ret void
}